target datalayout = "e-m:e-p270:32:32-p271:32:32-p272:64:64-i64:64-i128:128-f80:128-n8:16:32:64-S128"
target triple = "x86_64-pc-linux-gnu"

%"class.cv::xfeatures2d::GMSMatcher" = type { %"class.std::vector", %"class.std::vector", %"class.std::vector.0", i64, %"class.cv::Size_", %"class.cv::Size_", i32, i32, %"class.cv::Mat", %"class.std::vector.5", %"class.std::vector.5", %"class.std::vector.0", %"class.std::vector.10", %"class.cv::Mat", %"class.cv::Mat", double }
%"class.std::vector" = type { %"struct.std::_Vector_base" }
%"struct.std::_Vector_base" = type { %"struct.std::_Vector_base<cv::Point_<float>, std::allocator<cv::Point_<float>>>::_Vector_impl" }
%"struct.std::_Vector_base<cv::Point_<float>, std::allocator<cv::Point_<float>>>::_Vector_impl" = type { %"struct.std::_Vector_base<cv::Point_<float>, std::allocator<cv::Point_<float>>>::_Vector_impl_data" }
%"struct.std::_Vector_base<cv::Point_<float>, std::allocator<cv::Point_<float>>>::_Vector_impl_data" = type { ptr, ptr, ptr }
%"class.cv::Size_" = type { i32, i32 }
%"class.std::vector.5" = type { %"struct.std::_Vector_base.6" }
%"struct.std::_Vector_base.6" = type { %"struct.std::_Vector_base<int, std::allocator<int>>::_Vector_impl" }
%"struct.std::_Vector_base<int, std::allocator<int>>::_Vector_impl" = type { %"struct.std::_Vector_base<int, std::allocator<int>>::_Vector_impl_data" }
%"struct.std::_Vector_base<int, std::allocator<int>>::_Vector_impl_data" = type { ptr, ptr, ptr }
%"class.std::vector.0" = type { %"struct.std::_Vector_base.1" }
%"struct.std::_Vector_base.1" = type { %"struct.std::_Vector_base<std::pair<int, int>, std::allocator<std::pair<int, int>>>::_Vector_impl" }
%"struct.std::_Vector_base<std::pair<int, int>, std::allocator<std::pair<int, int>>>::_Vector_impl" = type { %"struct.std::_Vector_base<std::pair<int, int>, std::allocator<std::pair<int, int>>>::_Vector_impl_data" }
%"struct.std::_Vector_base<std::pair<int, int>, std::allocator<std::pair<int, int>>>::_Vector_impl_data" = type { ptr, ptr, ptr }
%"class.std::vector.10" = type { %"struct.std::_Bvector_base" }
%"struct.std::_Bvector_base" = type { %"struct.std::_Bvector_base<std::allocator<bool>>::_Bvector_impl" }
%"struct.std::_Bvector_base<std::allocator<bool>>::_Bvector_impl" = type { %"struct.std::_Bvector_base<std::allocator<bool>>::_Bvector_impl_data" }
%"struct.std::_Bvector_base<std::allocator<bool>>::_Bvector_impl_data" = type { %"struct.std::_Bit_iterator", %"struct.std::_Bit_iterator", ptr }
%"struct.std::_Bit_iterator" = type { %"struct.std::_Bit_iterator_base.base", [4 x i8] }
%"struct.std::_Bit_iterator_base.base" = type <{ ptr, i32 }>
%"class.cv::Mat" = type { i32, i32, i32, i32, ptr, ptr, ptr, ptr, ptr, ptr, %"struct.cv::MatSize", %"struct.cv::MatStep" }
%"struct.cv::MatSize" = type { ptr }
%"struct.cv::MatStep" = type { ptr, [2 x i64] }
%"class.cv::Point_" = type { float, float }

; Function Attrs: inlinehint mustprogress nounwind uwtable
define internal noundef i32 @_ZL7cvFloorf(float noundef %0) #5 {
  %2 = alloca float, align 4
  store float %0, ptr %2, align 4, !tbaa !80
  %3 = load float, ptr %2, align 4, !tbaa !80
  %4 = call float @llvm.floor.f32(float %3)
  %5 = fptosi float %4 to i32
  ret i32 %5
}

; Function Attrs: mustprogress uwtable
define hidden noundef i32 @_ZN2cv11xfeatures2d10GMSMatcher17getGridIndexRightERKNS_6Point_IfEE(ptr noundef nonnull align 8 dereferenceable(512) %0, ptr noundef nonnull align 4 dereferenceable(8) %1) #3 align 2 {
  %3 = alloca ptr, align 8
  %4 = alloca ptr, align 8
  %5 = alloca i32, align 4
  %6 = alloca i32, align 4
  store ptr %0, ptr %3, align 8, !tbaa !9
  store ptr %1, ptr %4, align 8, !tbaa !47
  %7 = load ptr, ptr %3, align 8
  call void @llvm.lifetime.start.p0(i64 4, ptr %5) #18
  %8 = load ptr, ptr %4, align 8, !tbaa !47
  %9 = getelementptr inbounds nuw %"class.cv::Point_", ptr %8, i32 0, i32 0
  %10 = load float, ptr %9, align 4, !tbaa !57
  %11 = getelementptr inbounds nuw %"class.cv::xfeatures2d::GMSMatcher", ptr %7, i32 0, i32 5
  %12 = getelementptr inbounds nuw %"class.cv::Size_", ptr %11, i32 0, i32 0
  %13 = load i32, ptr %12, align 8, !tbaa !63
  %14 = sitofp i32 %13 to float
  %15 = fmul float %10, %14
  %16 = call noundef i32 @_ZL7cvFloorf(float noundef %15)
  store i32 %16, ptr %5, align 4, !tbaa !7
  call void @llvm.lifetime.start.p0(i64 4, ptr %6) #18
  %17 = load ptr, ptr %4, align 8, !tbaa !47
  %18 = getelementptr inbounds nuw %"class.cv::Point_", ptr %17, i32 0, i32 1
  %19 = load float, ptr %18, align 4, !tbaa !61
  %20 = getelementptr inbounds nuw %"class.cv::xfeatures2d::GMSMatcher", ptr %7, i32 0, i32 5
  %21 = getelementptr inbounds nuw %"class.cv::Size_", ptr %20, i32 0, i32 1
  %22 = load i32, ptr %21, align 4, !tbaa !64
  %23 = sitofp i32 %22 to float
  %24 = fmul float %19, %23
  %25 = call noundef i32 @_ZL7cvFloorf(float noundef %24)
  store i32 %25, ptr %6, align 4, !tbaa !7
  %26 = load i32, ptr %5, align 4, !tbaa !7
  %27 = load i32, ptr %6, align 4, !tbaa !7
  %28 = getelementptr inbounds nuw %"class.cv::xfeatures2d::GMSMatcher", ptr %7, i32 0, i32 5
  %29 = getelementptr inbounds nuw %"class.cv::Size_", ptr %28, i32 0, i32 0
  %30 = load i32, ptr %29, align 8, !tbaa !63
  %31 = mul nsw i32 %27, %30
  %32 = add nsw i32 %26, %31
  call void @llvm.lifetime.end.p0(i64 4, ptr %6) #18
  call void @llvm.lifetime.end.p0(i64 4, ptr %5) #18
  ret i32 %32
}