; Function Attrs: mustprogress nofree norecurse nosync nounwind willreturn memory(argmem: read) uwtable
define hidden noundef i32 @_ZN2cv11xfeatures2d10GMSMatcher17getGridIndexRightERKNS_6Point_IfEE(ptr noundef nonnull readonly align 8 captures(none) dereferenceable(512) %0, ptr noundef nonnull readonly align 4 captures(none) dereferenceable(8) %1) local_unnamed_addr #3 align 2 {
  %3 = load float, ptr %1, align 4, !tbaa !45
  %4 = getelementptr inbounds nuw i8, ptr %0, i64 88
  %5 = load i32, ptr %4, align 8, !tbaa !48
  %6 = sitofp i32 %5 to float
  %7 = fmul float %3, %6
  %8 = tail call float @llvm.floor.f32(float %7)
  %9 = fptosi float %8 to i32
  %10 = getelementptr inbounds nuw i8, ptr %1, i64 4
  %11 = load float, ptr %10, align 4, !tbaa !49
  %12 = getelementptr inbounds nuw i8, ptr %0, i64 92
  %13 = load i32, ptr %12, align 4, !tbaa !50
  %14 = sitofp i32 %13 to float
  %15 = fmul float %11, %14
  %16 = tail call float @llvm.floor.f32(float %15)
  %17 = fptosi float %16 to i32
  %18 = mul nsw i32 %5, %17
  %19 = add nsw i32 %18, %9
  ret i32 %19
}